target datalayout = "e-m:e-p270:32:32-p271:32:32-p272:64:64-i64:64-i128:128-f80:128-n8:16:32:64-S128"
target triple = "x86_64-pc-linux-gnu"

@.str.2 = private unnamed_addr constant [15 x i8] c"operatorcmds.c\00", align 1
@.str.25 = private unnamed_addr constant [54 x i8] c"restriction estimator function %s must return type %s\00", align 1
@.str.26 = private unnamed_addr constant [7 x i8] c"float8\00", align 1
@__func__.ValidateRestrictionEstimator = private unnamed_addr constant [29 x i8] c"ValidateRestrictionEstimator\00", align 1

; Function Attrs: nounwind uwtable
define internal i32 @ValidateRestrictionEstimator(ptr noundef %0) #0 {
  %2 = alloca ptr, align 8
  %3 = alloca [4 x i32], align 16
  %4 = alloca i32, align 4
  %5 = alloca i32, align 4
  store ptr %0, ptr %2, align 8
  call void @llvm.lifetime.start.p0(i64 16, ptr %3) #8
  call void @llvm.lifetime.start.p0(i64 4, ptr %4) #8
  call void @llvm.lifetime.start.p0(i64 4, ptr %5) #8
  %6 = getelementptr inbounds [4 x i32], ptr %3, i64 0, i64 0
  store i32 2281, ptr %6, align 16
  %7 = getelementptr inbounds [4 x i32], ptr %3, i64 0, i64 1
  store i32 26, ptr %7, align 4
  %8 = getelementptr inbounds [4 x i32], ptr %3, i64 0, i64 2
  store i32 2281, ptr %8, align 8
  %9 = getelementptr inbounds [4 x i32], ptr %3, i64 0, i64 3
  store i32 23, ptr %9, align 4
  %10 = load ptr, ptr %2, align 8
  %11 = getelementptr inbounds [4 x i32], ptr %3, i64 0, i64 0
  %12 = call i32 @LookupFuncName(ptr noundef %10, i32 noundef 4, ptr noundef %11, i1 noundef zeroext false)
  store i32 %12, ptr %4, align 4
  %13 = load i32, ptr %4, align 4
  %14 = call i32 @get_func_rettype(i32 noundef %13)
  %15 = icmp ne i32 %14, 701
  br i1 %15, label %16, label %30

16:                                               ; preds = %1
  br label %17

17:                                               ; preds = %16
  br i1 true, label %18, label %20

18:                                               ; preds = %17
  %19 = call zeroext i1 @errstart_cold(i32 noundef 21, ptr noundef null) #10
  br i1 %19, label %22, label %27

20:                                               ; preds = %17
  %21 = call zeroext i1 @errstart(i32 noundef 21, ptr noundef null)
  br i1 %21, label %22, label %27

22:                                               ; preds = %20, %18
  %23 = call i32 @errcode(i32 noundef 117833860)
  %24 = load ptr, ptr %2, align 8
  %25 = call ptr @NameListToString(ptr noundef %24)
  %26 = call i32 (ptr, ...) @errmsg(ptr noundef @.str.25, ptr noundef %25, ptr noundef @.str.26)
  call void @errfinish(ptr noundef @.str.2, i32 noundef 293, ptr noundef @__func__.ValidateRestrictionEstimator)
  br label %27

27:                                               ; preds = %22, %20, %18
  unreachable

28:                                               ; No predecessors!
  br label %29

29:                                               ; preds = %28
  br label %30

30:                                               ; preds = %29, %1
  %31 = load i32, ptr %4, align 4
  %32 = call i32 @GetUserId()
  %33 = call i32 @object_aclcheck(i32 noundef 1255, i32 noundef %31, i32 noundef %32, i64 noundef 128)
  store i32 %33, ptr %5, align 4
  %34 = load i32, ptr %5, align 4
  %35 = icmp ne i32 %34, 0
  br i1 %35, label %36, label %40

36:                                               ; preds = %30
  %37 = load i32, ptr %5, align 4
  %38 = load ptr, ptr %2, align 8
  %39 = call ptr @NameListToString(ptr noundef %38)
  call void @aclcheck_error(i32 noundef %37, i32 noundef 19, ptr noundef %39)
  br label %40

40:                                               ; preds = %36, %30
  %41 = load i32, ptr %4, align 4
  call void @llvm.lifetime.end.p0(i64 4, ptr %5) #8
  call void @llvm.lifetime.end.p0(i64 4, ptr %4) #8
  call void @llvm.lifetime.end.p0(i64 16, ptr %3) #8
  ret i32 %41
}