; Function Attrs: nounwind uwtable
define internal fastcc noundef i32 @ValidateRestrictionEstimator(ptr noundef nonnull %0) unnamed_addr #0 {
  %2 = alloca [4 x i32], align 16
  call void @llvm.lifetime.start.p0(i64 16, ptr nonnull %2) #7
  store i32 2281, ptr %2, align 16
  %3 = getelementptr inbounds nuw i8, ptr %2, i64 4
  store i32 26, ptr %3, align 4
  %4 = getelementptr inbounds nuw i8, ptr %2, i64 8
  store i32 2281, ptr %4, align 8
  %5 = getelementptr inbounds nuw i8, ptr %2, i64 12
  store i32 23, ptr %5, align 4
  %6 = call i32 @LookupFuncName(ptr noundef nonnull %0, i32 noundef 4, ptr noundef nonnull %2, i1 noundef zeroext false) #7
  %7 = call i32 @get_func_rettype(i32 noundef %6) #7
  %.not = icmp eq i32 %7, 701
  br i1 %.not, label %13, label %8

8:                                                ; preds = %1
  %9 = call zeroext i1 @errstart_cold(i32 noundef 21, ptr noundef null) #9
  call void @llvm.assume(i1 %9)
  %10 = call i32 @errcode(i32 noundef 117833860) #7
  %11 = call ptr @NameListToString(ptr noundef nonnull %0) #7
  %12 = call i32 (ptr, ...) @errmsg(ptr noundef nonnull @.str.25, ptr noundef %11, ptr noundef nonnull @.str.26) #7
  call void @errfinish(ptr noundef nonnull @.str.2, i32 noundef 293, ptr noundef nonnull @__func__.ValidateRestrictionEstimator) #7
  unreachable

13:                                               ; preds = %1
  %14 = call i32 @GetUserId() #7
  %15 = call i32 @object_aclcheck(i32 noundef 1255, i32 noundef %6, i32 noundef %14, i64 noundef 128) #7
  %.not7 = icmp eq i32 %15, 0
  br i1 %.not7, label %18, label %16

16:                                               ; preds = %13
  %17 = call ptr @NameListToString(ptr noundef nonnull %0) #7
  call void @aclcheck_error(i32 noundef %15, i32 noundef 19, ptr noundef %17) #7
  br label %18

18:                                               ; preds = %16, %13
  call void @llvm.lifetime.end.p0(i64 16, ptr nonnull %2) #7
  ret i32 %6
}